target datalayout = "e-m:e-p270:32:32-p271:32:32-p272:64:64-i64:64-i128:128-f80:128-n8:16:32:64-S128"
target triple = "x86_64-pc-linux-gnu"

%struct.AVBSFContext = type { ptr, ptr, ptr, ptr, ptr, %struct.AVRational, %struct.AVRational }
%struct.AVRational = type { i32, i32 }
%struct.VP9BSFContext = type { i32, [8 x ptr] }

; Function Attrs: nounwind uwtable
define internal void @vp9_superframe_flush(ptr noundef %0) #0 {
  %2 = alloca ptr, align 8
  %3 = alloca ptr, align 8
  %4 = alloca i32, align 4
  store ptr %0, ptr %2, align 8, !tbaa !4
  call void @llvm.lifetime.start.p0(i64 8, ptr %3) #7
  %5 = load ptr, ptr %2, align 8, !tbaa !4
  %6 = getelementptr inbounds nuw %struct.AVBSFContext, ptr %5, i32 0, i32 2
  %7 = load ptr, ptr %6, align 8, !tbaa !9
  store ptr %7, ptr %3, align 8, !tbaa !16
  call void @llvm.lifetime.start.p0(i64 4, ptr %4) #7
  store i32 0, ptr %4, align 4, !tbaa !18
  br label %8

8:                                                ; preds = %21, %1
  %9 = load i32, ptr %4, align 4, !tbaa !18
  %10 = load ptr, ptr %3, align 8, !tbaa !16
  %11 = getelementptr inbounds nuw %struct.VP9BSFContext, ptr %10, i32 0, i32 0
  %12 = load i32, ptr %11, align 8, !tbaa !29
  %13 = icmp slt i32 %9, %12
  br i1 %13, label %14, label %24

14:                                               ; preds = %8
  %15 = load ptr, ptr %3, align 8, !tbaa !16
  %16 = getelementptr inbounds nuw %struct.VP9BSFContext, ptr %15, i32 0, i32 1
  %17 = load i32, ptr %4, align 4, !tbaa !18
  %18 = sext i32 %17 to i64
  %19 = getelementptr inbounds [8 x ptr], ptr %16, i64 0, i64 %18
  %20 = load ptr, ptr %19, align 8, !tbaa !19
  call void @av_packet_unref(ptr noundef %20)
  br label %21

21:                                               ; preds = %14
  %22 = load i32, ptr %4, align 4, !tbaa !18
  %23 = add nsw i32 %22, 1
  store i32 %23, ptr %4, align 4, !tbaa !18
  br label %8, !llvm.loop !35

24:                                               ; preds = %8
  %25 = load ptr, ptr %3, align 8, !tbaa !16
  %26 = getelementptr inbounds nuw %struct.VP9BSFContext, ptr %25, i32 0, i32 0
  store i32 0, ptr %26, align 8, !tbaa !29
  call void @llvm.lifetime.end.p0(i64 4, ptr %4) #7
  call void @llvm.lifetime.end.p0(i64 8, ptr %3) #7
  ret void
}